target datalayout = "e-m:e-p270:32:32-p271:32:32-p272:64:64-i64:64-i128:128-f80:128-n8:16:32:64-S128"
target triple = "x86_64-pc-linux-gnu"

; Function Attrs: mustprogress nounwind uwtable
define hidden noundef i32 @_Z17mbedtls_ct_memcmpPKvS0_m(ptr noundef %0, ptr noundef %1, i64 noundef %2) #0 {
  %4 = alloca ptr, align 8
  %5 = alloca ptr, align 8
  %6 = alloca i64, align 8
  %7 = alloca i64, align 8
  %8 = alloca ptr, align 8
  %9 = alloca ptr, align 8
  %10 = alloca i8, align 1
  %11 = alloca i8, align 1
  %12 = alloca i8, align 1
  store ptr %0, ptr %4, align 8, !tbaa !3
  store ptr %1, ptr %5, align 8, !tbaa !3
  store i64 %2, ptr %6, align 8, !tbaa !7
  call void @llvm.lifetime.start.p0(i64 8, ptr %7) #5
  call void @llvm.lifetime.start.p0(i64 8, ptr %8) #5
  %13 = load ptr, ptr %4, align 8, !tbaa !3
  store ptr %13, ptr %8, align 8, !tbaa !9
  call void @llvm.lifetime.start.p0(i64 8, ptr %9) #5
  %14 = load ptr, ptr %5, align 8, !tbaa !3
  store ptr %14, ptr %9, align 8, !tbaa !9
  call void @llvm.lifetime.start.p0(i64 1, ptr %10) #5
  store volatile i8 0, ptr %10, align 1, !tbaa !11
  store i64 0, ptr %7, align 8, !tbaa !7
  br label %15

15:                                               ; preds = %37, %3
  %16 = load i64, ptr %7, align 8, !tbaa !7
  %17 = load i64, ptr %6, align 8, !tbaa !7
  %18 = icmp ult i64 %16, %17
  br i1 %18, label %19, label %40

19:                                               ; preds = %15
  call void @llvm.lifetime.start.p0(i64 1, ptr %11) #5
  %20 = load ptr, ptr %8, align 8, !tbaa !9
  %21 = load i64, ptr %7, align 8, !tbaa !7
  %22 = getelementptr inbounds nuw i8, ptr %20, i64 %21
  %23 = load volatile i8, ptr %22, align 1, !tbaa !11
  store i8 %23, ptr %11, align 1, !tbaa !11
  call void @llvm.lifetime.start.p0(i64 1, ptr %12) #5
  %24 = load ptr, ptr %9, align 8, !tbaa !9
  %25 = load i64, ptr %7, align 8, !tbaa !7
  %26 = getelementptr inbounds nuw i8, ptr %24, i64 %25
  %27 = load volatile i8, ptr %26, align 1, !tbaa !11
  store i8 %27, ptr %12, align 1, !tbaa !11
  %28 = load volatile i8, ptr %10, align 1, !tbaa !11
  %29 = zext i8 %28 to i32
  %30 = load i8, ptr %11, align 1, !tbaa !11
  %31 = zext i8 %30 to i32
  %32 = load i8, ptr %12, align 1, !tbaa !11
  %33 = zext i8 %32 to i32
  %34 = xor i32 %31, %33
  %35 = or i32 %29, %34
  %36 = trunc i32 %35 to i8
  store volatile i8 %36, ptr %10, align 1, !tbaa !11
  call void @llvm.lifetime.end.p0(i64 1, ptr %12) #5
  call void @llvm.lifetime.end.p0(i64 1, ptr %11) #5
  br label %37

37:                                               ; preds = %19
  %38 = load i64, ptr %7, align 8, !tbaa !7
  %39 = add i64 %38, 1
  store i64 %39, ptr %7, align 8, !tbaa !7
  br label %15, !llvm.loop !12

40:                                               ; preds = %15
  %41 = load volatile i8, ptr %10, align 1, !tbaa !11
  %42 = zext i8 %41 to i32
  call void @llvm.lifetime.end.p0(i64 1, ptr %10) #5
  call void @llvm.lifetime.end.p0(i64 8, ptr %9) #5
  call void @llvm.lifetime.end.p0(i64 8, ptr %8) #5
  call void @llvm.lifetime.end.p0(i64 8, ptr %7) #5
  ret i32 %42
}