; Function Attrs: mustprogress nofree norecurse nounwind memory(argmem: readwrite, inaccessiblemem: readwrite) uwtable
define hidden noundef range(i32 0, 256) i32 @_Z17mbedtls_ct_memcmpPKvS0_m(ptr noundef %0, ptr noundef %1, i64 noundef %2) local_unnamed_addr #0 {
  %4 = alloca i8, align 1
  call void @llvm.lifetime.start.p0(i64 1, ptr nonnull %4)
  store volatile i8 0, ptr %4, align 1, !tbaa !3
  %.not = icmp eq i64 %2, 0
  br i1 %.not, label %._crit_edge, label %.lr.ph

.lr.ph:                                           ; preds = %3, %.lr.ph
  %.012 = phi i64 [ %11, %.lr.ph ], [ 0, %3 ]
  %5 = getelementptr inbounds nuw i8, ptr %0, i64 %.012
  %6 = load volatile i8, ptr %5, align 1, !tbaa !3
  %7 = getelementptr inbounds nuw i8, ptr %1, i64 %.012
  %8 = load volatile i8, ptr %7, align 1, !tbaa !3
  %.0..0..0..0. = load volatile i8, ptr %4, align 1, !tbaa !3
  %9 = xor i8 %8, %6
  %10 = or i8 %.0..0..0..0., %9
  store volatile i8 %10, ptr %4, align 1, !tbaa !3
  %11 = add nuw i64 %.012, 1
  %exitcond.not = icmp eq i64 %11, %2
  br i1 %exitcond.not, label %._crit_edge, label %.lr.ph, !llvm.loop !6

._crit_edge:                                      ; preds = %.lr.ph, %3
  %.0..0..0..0.2 = load volatile i8, ptr %4, align 1, !tbaa !3
  %12 = zext i8 %.0..0..0..0.2 to i32
  call void @llvm.lifetime.end.p0(i64 1, ptr nonnull %4)
  ret i32 %12
}